target datalayout = "e-m:e-p270:32:32-p271:32:32-p272:64:64-i64:64-i128:128-f80:128-n8:16:32:64-S128"
target triple = "x86_64-pc-linux-gnu"

%struct._object = type { i64, ptr }
%"struct.nanobind::detail::type_data" = type { i32, i32, ptr, ptr, ptr, ptr, ptr, ptr, ptr, ptr, %union.anon, ptr, ptr }
%union.anon = type { %struct.anon }
%struct.anon = type { ptr, ptr }

@PyExc_TypeError = external global ptr, align 8
@.str.21 = private unnamed_addr constant [28 x i8] c"%s: no constructor defined!\00", align 1

; Function Attrs: alwaysinline mustprogress nounwind uwtable
define linkonce_odr hidden noundef ptr @_ZN8nanobind6detail12nb_type_dataEP11_typeobject(ptr noundef %0) #5 comdat {
  %2 = alloca ptr, align 8
  store ptr %0, ptr %2, align 8
  %3 = load ptr, ptr %2, align 8
  %4 = getelementptr inbounds nuw i8, ptr %3, i64 888
  ret ptr %4
}

; Function Attrs: mustprogress uwtable
define internal noundef i32 @_ZN8nanobind6detailL9inst_initEP7_objectS2_S2_(ptr noundef %0, ptr noundef %1, ptr noundef %2) #0 {
  %4 = alloca ptr, align 8
  %5 = alloca ptr, align 8
  %6 = alloca ptr, align 8
  %7 = alloca ptr, align 8
  store ptr %0, ptr %4, align 8
  store ptr %1, ptr %5, align 8
  store ptr %2, ptr %6, align 8
  call void @llvm.lifetime.start.p0(i64 8, ptr %7) #20
  %8 = load ptr, ptr %4, align 8
  %9 = getelementptr inbounds nuw %struct._object, ptr %8, i32 0, i32 1
  %10 = load ptr, ptr %9, align 8
  %11 = call noundef ptr @_ZN8nanobind6detail12nb_type_dataEP11_typeobject(ptr noundef %10) #20
  store ptr %11, ptr %7, align 8
  %12 = load ptr, ptr @PyExc_TypeError, align 8
  %13 = load ptr, ptr %7, align 8
  %14 = getelementptr inbounds nuw %"struct.nanobind::detail::type_data", ptr %13, i32 0, i32 2
  %15 = load ptr, ptr %14, align 8
  %16 = call ptr (ptr, ptr, ...) @PyErr_Format(ptr noundef %12, ptr noundef @.str.21, ptr noundef %15)
  call void @llvm.lifetime.end.p0(i64 8, ptr %7) #20
  ret i32 -1
}