; Function Attrs: mustprogress uwtable
define internal noundef i32 @_ZN8nanobind6detailL9inst_initEP7_objectS2_S2_(ptr noundef readonly captures(none) %0, ptr readnone captures(none) %1, ptr readnone captures(none) %2) #0 {
  %4 = getelementptr inbounds nuw i8, ptr %0, i64 8
  %5 = load ptr, ptr %4, align 8
  %6 = load ptr, ptr @PyExc_TypeError, align 8
  %7 = getelementptr inbounds nuw i8, ptr %5, i64 896
  %8 = load ptr, ptr %7, align 8
  %9 = tail call ptr (ptr, ptr, ...) @PyErr_Format(ptr noundef %6, ptr noundef nonnull @.str.21, ptr noundef %8)
  ret i32 -1
}